target datalayout = "e-m:e-p270:32:32-p271:32:32-p272:64:64-i64:64-i128:128-f80:128-n8:16:32:64-S128"
target triple = "x86_64-pc-linux-gnu"

%"class.mu::ParserByteCode" = type <{ i32, [4 x i8], i64, %"class.std::vector", i8, [7 x i8] }>
%"class.std::vector" = type { %"struct.std::_Vector_base" }
%"struct.std::_Vector_base" = type { %"struct.std::_Vector_base<mu::SToken, std::allocator<mu::SToken>>::_Vector_impl" }
%"struct.std::_Vector_base<mu::SToken, std::allocator<mu::SToken>>::_Vector_impl" = type { %"struct.std::_Vector_base<mu::SToken, std::allocator<mu::SToken>>::_Vector_impl_data" }
%"struct.std::_Vector_base<mu::SToken, std::allocator<mu::SToken>>::_Vector_impl_data" = type { ptr, ptr, ptr }
%"struct.mu::SToken" = type { i32, %union.anon.3 }
%union.anon.3 = type { %struct.anon }
%struct.anon = type { ptr, double, double }

; Function Attrs: mustprogress nounwind uwtable
define linkonce_odr void @_ZNSt15__new_allocatorIN2mu6STokenEE7destroyIS1_EEvPT_(ptr noundef nonnull align 1 dereferenceable(1) %0, ptr noundef %1) #5 comdat align 2 {
  %3 = alloca ptr, align 8
  %4 = alloca ptr, align 8
  store ptr %0, ptr %3, align 8, !tbaa !57
  store ptr %1, ptr %4, align 8, !tbaa !47
  ret void
}

; Function Attrs: mustprogress nounwind uwtable
define linkonce_odr void @_ZNSt16allocator_traitsISaIN2mu6STokenEEE7destroyIS1_EEvRS2_PT_(ptr noundef nonnull align 1 dereferenceable(1) %0, ptr noundef %1) #5 comdat align 2 {
  %3 = alloca ptr, align 8
  %4 = alloca ptr, align 8
  store ptr %0, ptr %3, align 8, !tbaa !55
  store ptr %1, ptr %4, align 8, !tbaa !47
  %5 = load ptr, ptr %3, align 8, !tbaa !55
  %6 = load ptr, ptr %4, align 8, !tbaa !47
  call void @_ZNSt15__new_allocatorIN2mu6STokenEE7destroyIS1_EEvPT_(ptr noundef nonnull align 1 dereferenceable(1) %5, ptr noundef %6) #3
  ret void
}

; Function Attrs: mustprogress nounwind uwtable
define linkonce_odr noundef double @_ZN2mu8MathImplIdE3PowEdd(double noundef %0, double noundef %1) #5 comdat align 2 {
  %3 = alloca double, align 8
  %4 = alloca double, align 8
  store double %0, ptr %3, align 8, !tbaa !83
  store double %1, ptr %4, align 8, !tbaa !83
  %5 = load double, ptr %3, align 8, !tbaa !83
  %6 = load double, ptr %4, align 8, !tbaa !83
  %7 = call double @pow(double noundef %5, double noundef %6) #3, !tbaa !85
  ret double %7
}

; Function Attrs: mustprogress nounwind uwtable
define linkonce_odr void @_ZNSt6vectorIN2mu6STokenESaIS1_EE8pop_backEv(ptr noundef nonnull align 8 dereferenceable(24) %0) #5 comdat align 2 {
  %2 = alloca ptr, align 8
  store ptr %0, ptr %2, align 8, !tbaa !45
  %3 = load ptr, ptr %2, align 8
  %4 = getelementptr inbounds nuw %"struct.std::_Vector_base", ptr %3, i32 0, i32 0
  %5 = getelementptr inbounds nuw %"struct.std::_Vector_base<mu::SToken, std::allocator<mu::SToken>>::_Vector_impl_data", ptr %4, i32 0, i32 1
  %6 = load ptr, ptr %5, align 8, !tbaa !49
  %7 = getelementptr inbounds %"struct.mu::SToken", ptr %6, i32 -1
  store ptr %7, ptr %5, align 8, !tbaa !49
  %8 = getelementptr inbounds nuw %"struct.std::_Vector_base", ptr %3, i32 0, i32 0
  %9 = getelementptr inbounds nuw %"struct.std::_Vector_base", ptr %3, i32 0, i32 0
  %10 = getelementptr inbounds nuw %"struct.std::_Vector_base<mu::SToken, std::allocator<mu::SToken>>::_Vector_impl_data", ptr %9, i32 0, i32 1
  %11 = load ptr, ptr %10, align 8, !tbaa !49
  call void @_ZNSt16allocator_traitsISaIN2mu6STokenEEE7destroyIS1_EEvRS2_PT_(ptr noundef nonnull align 1 dereferenceable(1) %8, ptr noundef %11) #3
  ret void
}

; Function Attrs: mustprogress nounwind uwtable
define linkonce_odr noundef nonnull align 8 dereferenceable(32) ptr @_ZNSt6vectorIN2mu6STokenESaIS1_EEixEm(ptr noundef nonnull align 8 dereferenceable(24) %0, i64 noundef %1) #5 comdat align 2 {
  %3 = alloca ptr, align 8
  %4 = alloca i64, align 8
  store ptr %0, ptr %3, align 8, !tbaa !45
  store i64 %1, ptr %4, align 8, !tbaa !19
  %5 = load ptr, ptr %3, align 8
  %6 = getelementptr inbounds nuw %"struct.std::_Vector_base", ptr %5, i32 0, i32 0
  %7 = getelementptr inbounds nuw %"struct.std::_Vector_base<mu::SToken, std::allocator<mu::SToken>>::_Vector_impl_data", ptr %6, i32 0, i32 0
  %8 = load ptr, ptr %7, align 8, !tbaa !48
  %9 = load i64, ptr %4, align 8, !tbaa !19
  %10 = getelementptr inbounds nuw %"struct.mu::SToken", ptr %8, i64 %9
  ret ptr %10
}

; Function Attrs: mustprogress nounwind uwtable
define linkonce_odr noundef i64 @_ZNKSt6vectorIN2mu6STokenESaIS1_EE4sizeEv(ptr noundef nonnull align 8 dereferenceable(24) %0) #5 comdat align 2 {
  %2 = alloca ptr, align 8
  store ptr %0, ptr %2, align 8, !tbaa !45
  %3 = load ptr, ptr %2, align 8
  %4 = getelementptr inbounds nuw %"struct.std::_Vector_base", ptr %3, i32 0, i32 0
  %5 = getelementptr inbounds nuw %"struct.std::_Vector_base<mu::SToken, std::allocator<mu::SToken>>::_Vector_impl_data", ptr %4, i32 0, i32 1
  %6 = load ptr, ptr %5, align 8, !tbaa !49
  %7 = getelementptr inbounds nuw %"struct.std::_Vector_base", ptr %3, i32 0, i32 0
  %8 = getelementptr inbounds nuw %"struct.std::_Vector_base<mu::SToken, std::allocator<mu::SToken>>::_Vector_impl_data", ptr %7, i32 0, i32 0
  %9 = load ptr, ptr %8, align 8, !tbaa !48
  %10 = ptrtoint ptr %6 to i64
  %11 = ptrtoint ptr %9 to i64
  %12 = sub i64 %10, %11
  %13 = sdiv exact i64 %12, 32
  ret i64 %13
}

; Function Attrs: mustprogress uwtable
define void @_ZN2mu14ParserByteCode15ConstantFoldingENS_8ECmdCodeE(ptr noundef nonnull align 8 dereferenceable(48) %0, i32 noundef %1) #6 align 2 {
  %3 = alloca ptr, align 8
  %4 = alloca i32, align 4
  %5 = alloca i64, align 8
  %6 = alloca ptr, align 8
  %7 = alloca ptr, align 8
  store ptr %0, ptr %3, align 8, !tbaa !32
  store i32 %1, ptr %4, align 4, !tbaa !82
  %8 = load ptr, ptr %3, align 8
  call void @llvm.lifetime.start.p0(i64 8, ptr %5) #3
  %9 = getelementptr inbounds nuw %"class.mu::ParserByteCode", ptr %8, i32 0, i32 3
  %10 = call noundef i64 @_ZNKSt6vectorIN2mu6STokenESaIS1_EE4sizeEv(ptr noundef nonnull align 8 dereferenceable(24) %9) #3
  store i64 %10, ptr %5, align 8, !tbaa !19
  call void @llvm.lifetime.start.p0(i64 8, ptr %6) #3
  %11 = getelementptr inbounds nuw %"class.mu::ParserByteCode", ptr %8, i32 0, i32 3
  %12 = load i64, ptr %5, align 8, !tbaa !19
  %13 = sub i64 %12, 2
  %14 = call noundef nonnull align 8 dereferenceable(32) ptr @_ZNSt6vectorIN2mu6STokenESaIS1_EEixEm(ptr noundef nonnull align 8 dereferenceable(24) %11, i64 noundef %13) #3
  %15 = getelementptr inbounds nuw %"struct.mu::SToken", ptr %14, i32 0, i32 1
  %16 = getelementptr inbounds nuw %struct.anon, ptr %15, i32 0, i32 2
  store ptr %16, ptr %6, align 8, !tbaa !76
  call void @llvm.lifetime.start.p0(i64 8, ptr %7) #3
  %17 = getelementptr inbounds nuw %"class.mu::ParserByteCode", ptr %8, i32 0, i32 3
  %18 = load i64, ptr %5, align 8, !tbaa !19
  %19 = sub i64 %18, 1
  %20 = call noundef nonnull align 8 dereferenceable(32) ptr @_ZNSt6vectorIN2mu6STokenESaIS1_EEixEm(ptr noundef nonnull align 8 dereferenceable(24) %17, i64 noundef %19) #3
  %21 = getelementptr inbounds nuw %"struct.mu::SToken", ptr %20, i32 0, i32 1
  %22 = getelementptr inbounds nuw %struct.anon, ptr %21, i32 0, i32 2
  store ptr %22, ptr %7, align 8, !tbaa !76
  %23 = load i32, ptr %4, align 4, !tbaa !82
  switch i32 %23, label %148 [
    i32 11, label %24
    i32 12, label %39
    i32 4, label %54
    i32 5, label %63
    i32 0, label %72
    i32 1, label %81
    i32 2, label %90
    i32 3, label %99
    i32 6, label %108
    i32 7, label %116
    i32 8, label %124
    i32 9, label %132
    i32 10, label %140
  ]

24:                                               ; preds = %2
  %25 = load ptr, ptr %6, align 8, !tbaa !76
  %26 = load double, ptr %25, align 8, !tbaa !83
  %27 = fptosi double %26 to i32
  %28 = icmp ne i32 %27, 0
  br i1 %28, label %29, label %34

29:                                               ; preds = %24
  %30 = load ptr, ptr %7, align 8, !tbaa !76
  %31 = load double, ptr %30, align 8, !tbaa !83
  %32 = fptosi double %31 to i32
  %33 = icmp ne i32 %32, 0
  br label %34

34:                                               ; preds = %29, %24
  %35 = phi i1 [ false, %24 ], [ %33, %29 ]
  %36 = uitofp i1 %35 to double
  %37 = load ptr, ptr %6, align 8, !tbaa !76
  store double %36, ptr %37, align 8, !tbaa !83
  %38 = getelementptr inbounds nuw %"class.mu::ParserByteCode", ptr %8, i32 0, i32 3
  call void @_ZNSt6vectorIN2mu6STokenESaIS1_EE8pop_backEv(ptr noundef nonnull align 8 dereferenceable(24) %38) #3
  br label %149

39:                                               ; preds = %2
  %40 = load ptr, ptr %6, align 8, !tbaa !76
  %41 = load double, ptr %40, align 8, !tbaa !83
  %42 = fptosi double %41 to i32
  %43 = icmp ne i32 %42, 0
  br i1 %43, label %49, label %44

44:                                               ; preds = %39
  %45 = load ptr, ptr %7, align 8, !tbaa !76
  %46 = load double, ptr %45, align 8, !tbaa !83
  %47 = fptosi double %46 to i32
  %48 = icmp ne i32 %47, 0
  br label %49

49:                                               ; preds = %44, %39
  %50 = phi i1 [ true, %39 ], [ %48, %44 ]
  %51 = uitofp i1 %50 to double
  %52 = load ptr, ptr %6, align 8, !tbaa !76
  store double %51, ptr %52, align 8, !tbaa !83
  %53 = getelementptr inbounds nuw %"class.mu::ParserByteCode", ptr %8, i32 0, i32 3
  call void @_ZNSt6vectorIN2mu6STokenESaIS1_EE8pop_backEv(ptr noundef nonnull align 8 dereferenceable(24) %53) #3
  br label %149

54:                                               ; preds = %2
  %55 = load ptr, ptr %6, align 8, !tbaa !76
  %56 = load double, ptr %55, align 8, !tbaa !83
  %57 = load ptr, ptr %7, align 8, !tbaa !76
  %58 = load double, ptr %57, align 8, !tbaa !83
  %59 = fcmp olt double %56, %58
  %60 = uitofp i1 %59 to double
  %61 = load ptr, ptr %6, align 8, !tbaa !76
  store double %60, ptr %61, align 8, !tbaa !83
  %62 = getelementptr inbounds nuw %"class.mu::ParserByteCode", ptr %8, i32 0, i32 3
  call void @_ZNSt6vectorIN2mu6STokenESaIS1_EE8pop_backEv(ptr noundef nonnull align 8 dereferenceable(24) %62) #3
  br label %149

63:                                               ; preds = %2
  %64 = load ptr, ptr %6, align 8, !tbaa !76
  %65 = load double, ptr %64, align 8, !tbaa !83
  %66 = load ptr, ptr %7, align 8, !tbaa !76
  %67 = load double, ptr %66, align 8, !tbaa !83
  %68 = fcmp ogt double %65, %67
  %69 = uitofp i1 %68 to double
  %70 = load ptr, ptr %6, align 8, !tbaa !76
  store double %69, ptr %70, align 8, !tbaa !83
  %71 = getelementptr inbounds nuw %"class.mu::ParserByteCode", ptr %8, i32 0, i32 3
  call void @_ZNSt6vectorIN2mu6STokenESaIS1_EE8pop_backEv(ptr noundef nonnull align 8 dereferenceable(24) %71) #3
  br label %149

72:                                               ; preds = %2
  %73 = load ptr, ptr %6, align 8, !tbaa !76
  %74 = load double, ptr %73, align 8, !tbaa !83
  %75 = load ptr, ptr %7, align 8, !tbaa !76
  %76 = load double, ptr %75, align 8, !tbaa !83
  %77 = fcmp ole double %74, %76
  %78 = uitofp i1 %77 to double
  %79 = load ptr, ptr %6, align 8, !tbaa !76
  store double %78, ptr %79, align 8, !tbaa !83
  %80 = getelementptr inbounds nuw %"class.mu::ParserByteCode", ptr %8, i32 0, i32 3
  call void @_ZNSt6vectorIN2mu6STokenESaIS1_EE8pop_backEv(ptr noundef nonnull align 8 dereferenceable(24) %80) #3
  br label %149

81:                                               ; preds = %2
  %82 = load ptr, ptr %6, align 8, !tbaa !76
  %83 = load double, ptr %82, align 8, !tbaa !83
  %84 = load ptr, ptr %7, align 8, !tbaa !76
  %85 = load double, ptr %84, align 8, !tbaa !83
  %86 = fcmp oge double %83, %85
  %87 = uitofp i1 %86 to double
  %88 = load ptr, ptr %6, align 8, !tbaa !76
  store double %87, ptr %88, align 8, !tbaa !83
  %89 = getelementptr inbounds nuw %"class.mu::ParserByteCode", ptr %8, i32 0, i32 3
  call void @_ZNSt6vectorIN2mu6STokenESaIS1_EE8pop_backEv(ptr noundef nonnull align 8 dereferenceable(24) %89) #3
  br label %149

90:                                               ; preds = %2
  %91 = load ptr, ptr %6, align 8, !tbaa !76
  %92 = load double, ptr %91, align 8, !tbaa !83
  %93 = load ptr, ptr %7, align 8, !tbaa !76
  %94 = load double, ptr %93, align 8, !tbaa !83
  %95 = fcmp une double %92, %94
  %96 = uitofp i1 %95 to double
  %97 = load ptr, ptr %6, align 8, !tbaa !76
  store double %96, ptr %97, align 8, !tbaa !83
  %98 = getelementptr inbounds nuw %"class.mu::ParserByteCode", ptr %8, i32 0, i32 3
  call void @_ZNSt6vectorIN2mu6STokenESaIS1_EE8pop_backEv(ptr noundef nonnull align 8 dereferenceable(24) %98) #3
  br label %149

99:                                               ; preds = %2
  %100 = load ptr, ptr %6, align 8, !tbaa !76
  %101 = load double, ptr %100, align 8, !tbaa !83
  %102 = load ptr, ptr %7, align 8, !tbaa !76
  %103 = load double, ptr %102, align 8, !tbaa !83
  %104 = fcmp oeq double %101, %103
  %105 = uitofp i1 %104 to double
  %106 = load ptr, ptr %6, align 8, !tbaa !76
  store double %105, ptr %106, align 8, !tbaa !83
  %107 = getelementptr inbounds nuw %"class.mu::ParserByteCode", ptr %8, i32 0, i32 3
  call void @_ZNSt6vectorIN2mu6STokenESaIS1_EE8pop_backEv(ptr noundef nonnull align 8 dereferenceable(24) %107) #3
  br label %149

108:                                              ; preds = %2
  %109 = load ptr, ptr %6, align 8, !tbaa !76
  %110 = load double, ptr %109, align 8, !tbaa !83
  %111 = load ptr, ptr %7, align 8, !tbaa !76
  %112 = load double, ptr %111, align 8, !tbaa !83
  %113 = fadd double %110, %112
  %114 = load ptr, ptr %6, align 8, !tbaa !76
  store double %113, ptr %114, align 8, !tbaa !83
  %115 = getelementptr inbounds nuw %"class.mu::ParserByteCode", ptr %8, i32 0, i32 3
  call void @_ZNSt6vectorIN2mu6STokenESaIS1_EE8pop_backEv(ptr noundef nonnull align 8 dereferenceable(24) %115) #3
  br label %149

116:                                              ; preds = %2
  %117 = load ptr, ptr %6, align 8, !tbaa !76
  %118 = load double, ptr %117, align 8, !tbaa !83
  %119 = load ptr, ptr %7, align 8, !tbaa !76
  %120 = load double, ptr %119, align 8, !tbaa !83
  %121 = fsub double %118, %120
  %122 = load ptr, ptr %6, align 8, !tbaa !76
  store double %121, ptr %122, align 8, !tbaa !83
  %123 = getelementptr inbounds nuw %"class.mu::ParserByteCode", ptr %8, i32 0, i32 3
  call void @_ZNSt6vectorIN2mu6STokenESaIS1_EE8pop_backEv(ptr noundef nonnull align 8 dereferenceable(24) %123) #3
  br label %149

124:                                              ; preds = %2
  %125 = load ptr, ptr %6, align 8, !tbaa !76
  %126 = load double, ptr %125, align 8, !tbaa !83
  %127 = load ptr, ptr %7, align 8, !tbaa !76
  %128 = load double, ptr %127, align 8, !tbaa !83
  %129 = fmul double %126, %128
  %130 = load ptr, ptr %6, align 8, !tbaa !76
  store double %129, ptr %130, align 8, !tbaa !83
  %131 = getelementptr inbounds nuw %"class.mu::ParserByteCode", ptr %8, i32 0, i32 3
  call void @_ZNSt6vectorIN2mu6STokenESaIS1_EE8pop_backEv(ptr noundef nonnull align 8 dereferenceable(24) %131) #3
  br label %149

132:                                              ; preds = %2
  %133 = load ptr, ptr %6, align 8, !tbaa !76
  %134 = load double, ptr %133, align 8, !tbaa !83
  %135 = load ptr, ptr %7, align 8, !tbaa !76
  %136 = load double, ptr %135, align 8, !tbaa !83
  %137 = fdiv double %134, %136
  %138 = load ptr, ptr %6, align 8, !tbaa !76
  store double %137, ptr %138, align 8, !tbaa !83
  %139 = getelementptr inbounds nuw %"class.mu::ParserByteCode", ptr %8, i32 0, i32 3
  call void @_ZNSt6vectorIN2mu6STokenESaIS1_EE8pop_backEv(ptr noundef nonnull align 8 dereferenceable(24) %139) #3
  br label %149

140:                                              ; preds = %2
  %141 = load ptr, ptr %6, align 8, !tbaa !76
  %142 = load double, ptr %141, align 8, !tbaa !83
  %143 = load ptr, ptr %7, align 8, !tbaa !76
  %144 = load double, ptr %143, align 8, !tbaa !83
  %145 = call noundef double @_ZN2mu8MathImplIdE3PowEdd(double noundef %142, double noundef %144)
  %146 = load ptr, ptr %6, align 8, !tbaa !76
  store double %145, ptr %146, align 8, !tbaa !83
  %147 = getelementptr inbounds nuw %"class.mu::ParserByteCode", ptr %8, i32 0, i32 3
  call void @_ZNSt6vectorIN2mu6STokenESaIS1_EE8pop_backEv(ptr noundef nonnull align 8 dereferenceable(24) %147) #3
  br label %149

148:                                              ; preds = %2
  br label %149

149:                                              ; preds = %148, %140, %132, %124, %116, %108, %99, %90, %81, %72, %63, %54, %49, %34
  call void @llvm.lifetime.end.p0(i64 8, ptr %7) #3
  call void @llvm.lifetime.end.p0(i64 8, ptr %6) #3
  call void @llvm.lifetime.end.p0(i64 8, ptr %5) #3
  ret void
}