; Function Attrs: mustprogress nofree nounwind willreturn memory(readwrite, inaccessiblemem: write) uwtable
define void @_ZN2mu14ParserByteCode15ConstantFoldingENS_8ECmdCodeE(ptr noundef nonnull align 8 captures(none) dereferenceable(48) %0, i32 noundef %1) local_unnamed_addr #14 align 2 {
  %3 = getelementptr inbounds nuw i8, ptr %0, i64 16
  %4 = getelementptr inbounds nuw i8, ptr %0, i64 24
  %5 = load ptr, ptr %4, align 8, !tbaa !19
  %6 = load ptr, ptr %3, align 8, !tbaa !18
  %7 = ptrtoint ptr %5 to i64
  %8 = ptrtoint ptr %6 to i64
  %9 = sub i64 %7, %8
  %10 = getelementptr i8, ptr %6, i64 %9
  %11 = getelementptr i8, ptr %10, i64 -40
  %12 = getelementptr i8, ptr %10, i64 -8
  switch i32 %1, label %80 [
    i32 11, label %13
    i32 12, label %21
    i32 4, label %29
    i32 5, label %34
    i32 0, label %39
    i32 1, label %44
    i32 2, label %49
    i32 3, label %54
    i32 6, label %59
    i32 7, label %63
    i32 8, label %67
    i32 9, label %71
    i32 10, label %75
  ]

13:                                               ; preds = %2
  %14 = load double, ptr %11, align 8, !tbaa !29
  %15 = fptosi double %14 to i32
  %.not42 = icmp eq i32 %15, 0
  %16 = load double, ptr %12, align 8
  %17 = fptosi double %16 to i32
  %18 = icmp ne i32 %17, 0
  %19 = uitofp i1 %18 to double
  %20 = select i1 %.not42, double 0.000000e+00, double %19
  br label %.sink.split

21:                                               ; preds = %2
  %22 = load double, ptr %11, align 8, !tbaa !29
  %23 = fptosi double %22 to i32
  %.not = icmp eq i32 %23, 0
  %24 = load double, ptr %12, align 8
  %25 = fptosi double %24 to i32
  %26 = icmp ne i32 %25, 0
  %27 = uitofp i1 %26 to double
  %28 = select i1 %.not, double %27, double 1.000000e+00
  br label %.sink.split

29:                                               ; preds = %2
  %30 = load double, ptr %11, align 8, !tbaa !29
  %31 = load double, ptr %12, align 8, !tbaa !29
  %32 = fcmp olt double %30, %31
  %33 = uitofp i1 %32 to double
  br label %.sink.split

34:                                               ; preds = %2
  %35 = load double, ptr %11, align 8, !tbaa !29
  %36 = load double, ptr %12, align 8, !tbaa !29
  %37 = fcmp ogt double %35, %36
  %38 = uitofp i1 %37 to double
  br label %.sink.split

39:                                               ; preds = %2
  %40 = load double, ptr %11, align 8, !tbaa !29
  %41 = load double, ptr %12, align 8, !tbaa !29
  %42 = fcmp ole double %40, %41
  %43 = uitofp i1 %42 to double
  br label %.sink.split

44:                                               ; preds = %2
  %45 = load double, ptr %11, align 8, !tbaa !29
  %46 = load double, ptr %12, align 8, !tbaa !29
  %47 = fcmp oge double %45, %46
  %48 = uitofp i1 %47 to double
  br label %.sink.split

49:                                               ; preds = %2
  %50 = load double, ptr %11, align 8, !tbaa !29
  %51 = load double, ptr %12, align 8, !tbaa !29
  %52 = fcmp une double %50, %51
  %53 = uitofp i1 %52 to double
  br label %.sink.split

54:                                               ; preds = %2
  %55 = load double, ptr %11, align 8, !tbaa !29
  %56 = load double, ptr %12, align 8, !tbaa !29
  %57 = fcmp oeq double %55, %56
  %58 = uitofp i1 %57 to double
  br label %.sink.split

59:                                               ; preds = %2
  %60 = load double, ptr %11, align 8, !tbaa !29
  %61 = load double, ptr %12, align 8, !tbaa !29
  %62 = fadd double %60, %61
  br label %.sink.split

63:                                               ; preds = %2
  %64 = load double, ptr %11, align 8, !tbaa !29
  %65 = load double, ptr %12, align 8, !tbaa !29
  %66 = fsub double %64, %65
  br label %.sink.split

67:                                               ; preds = %2
  %68 = load double, ptr %11, align 8, !tbaa !29
  %69 = load double, ptr %12, align 8, !tbaa !29
  %70 = fmul double %68, %69
  br label %.sink.split

71:                                               ; preds = %2
  %72 = load double, ptr %11, align 8, !tbaa !29
  %73 = load double, ptr %12, align 8, !tbaa !29
  %74 = fdiv double %72, %73
  br label %.sink.split

75:                                               ; preds = %2
  %76 = load double, ptr %11, align 8, !tbaa !29
  %77 = load double, ptr %12, align 8, !tbaa !29
  %78 = tail call noundef double @pow(double noundef %76, double noundef %77) #24, !tbaa !31
  br label %.sink.split

.sink.split:                                      ; preds = %13, %21, %29, %34, %39, %44, %49, %54, %59, %63, %67, %71, %75
  %.sink = phi double [ %78, %75 ], [ %74, %71 ], [ %70, %67 ], [ %66, %63 ], [ %62, %59 ], [ %58, %54 ], [ %53, %49 ], [ %48, %44 ], [ %43, %39 ], [ %38, %34 ], [ %33, %29 ], [ %28, %21 ], [ %20, %13 ]
  store double %.sink, ptr %11, align 8, !tbaa !29
  %79 = getelementptr inbounds i8, ptr %5, i64 -32
  store ptr %79, ptr %4, align 8, !tbaa !19
  br label %80

80:                                               ; preds = %.sink.split, %2
  ret void
}